target datalayout = "e-m:e-p270:32:32-p271:32:32-p272:64:64-i64:64-i128:128-f80:128-n8:16:32:64-S128"
target triple = "x86_64-unknown-linux-gnu"

%struct.b3Int4 = type { %union.anon.33 }
%union.anon.33 = type { %struct.anon.34 }
%struct.anon.34 = type { i32, i32, i32, i32 }

; Function Attrs: mustprogress nounwind uwtable
define internal noundef zeroext i1 @_ZL9b3PairCmpRK6b3Int4S1_(ptr noundef nonnull align 16 dereferenceable(16) %p, ptr noundef nonnull align 16 dereferenceable(16) %q) #1 {
entry:
  %p.addr = alloca ptr, align 8
  %q.addr = alloca ptr, align 8
  store ptr %p, ptr %p.addr, align 8
  store ptr %q, ptr %q.addr, align 8
  %0 = load ptr, ptr %p.addr, align 8
  %1 = getelementptr inbounds %struct.b3Int4, ptr %0, i32 0, i32 0
  %x = getelementptr inbounds %struct.anon.34, ptr %1, i32 0, i32 0
  %2 = load i32, ptr %x, align 16
  %3 = load ptr, ptr %q.addr, align 8
  %4 = getelementptr inbounds %struct.b3Int4, ptr %3, i32 0, i32 0
  %x1 = getelementptr inbounds %struct.anon.34, ptr %4, i32 0, i32 0
  %5 = load i32, ptr %x1, align 16
  %cmp = icmp slt i32 %2, %5
  br i1 %cmp, label %lor.end, label %lor.rhs

lor.rhs:                                          ; preds = %entry
  %6 = load ptr, ptr %p.addr, align 8
  %7 = getelementptr inbounds %struct.b3Int4, ptr %6, i32 0, i32 0
  %x2 = getelementptr inbounds %struct.anon.34, ptr %7, i32 0, i32 0
  %8 = load i32, ptr %x2, align 16
  %9 = load ptr, ptr %q.addr, align 8
  %10 = getelementptr inbounds %struct.b3Int4, ptr %9, i32 0, i32 0
  %x3 = getelementptr inbounds %struct.anon.34, ptr %10, i32 0, i32 0
  %11 = load i32, ptr %x3, align 16
  %cmp4 = icmp eq i32 %8, %11
  br i1 %cmp4, label %land.rhs, label %land.end

land.rhs:                                         ; preds = %lor.rhs
  %12 = load ptr, ptr %p.addr, align 8
  %13 = getelementptr inbounds %struct.b3Int4, ptr %12, i32 0, i32 0
  %y = getelementptr inbounds %struct.anon.34, ptr %13, i32 0, i32 1
  %14 = load i32, ptr %y, align 4
  %15 = load ptr, ptr %q.addr, align 8
  %16 = getelementptr inbounds %struct.b3Int4, ptr %15, i32 0, i32 0
  %y5 = getelementptr inbounds %struct.anon.34, ptr %16, i32 0, i32 1
  %17 = load i32, ptr %y5, align 4
  %cmp6 = icmp slt i32 %14, %17
  br label %land.end

land.end:                                         ; preds = %land.rhs, %lor.rhs
  %18 = phi i1 [ false, %lor.rhs ], [ %cmp6, %land.rhs ]
  br label %lor.end

lor.end:                                          ; preds = %land.end, %entry
  %19 = phi i1 [ true, %entry ], [ %18, %land.end ]
  ret i1 %19
}