; Function Attrs: mustprogress nofree norecurse nosync nounwind willreturn memory(argmem: read) uwtable
define internal noundef zeroext i1 @_ZL9b3PairCmpRK6b3Int4S1_(ptr nocapture noundef nonnull readonly align 16 dereferenceable(16) %p, ptr nocapture noundef nonnull readonly align 16 dereferenceable(16) %q) #9 {
entry:
  %0 = load i32, ptr %p, align 16
  %1 = load i32, ptr %q, align 16
  %cmp = icmp slt i32 %0, %1
  br i1 %cmp, label %lor.end, label %lor.rhs

lor.rhs:                                          ; preds = %entry
  %cmp4 = icmp eq i32 %0, %1
  br i1 %cmp4, label %land.rhs, label %lor.end

land.rhs:                                         ; preds = %lor.rhs
  %y = getelementptr inbounds i8, ptr %p, i64 4
  %2 = load i32, ptr %y, align 4
  %y5 = getelementptr inbounds i8, ptr %q, i64 4
  %3 = load i32, ptr %y5, align 4
  %cmp6 = icmp slt i32 %2, %3
  br label %lor.end

lor.end:                                          ; preds = %lor.rhs, %land.rhs, %entry
  %4 = phi i1 [ true, %entry ], [ false, %lor.rhs ], [ %cmp6, %land.rhs ]
  ret i1 %4
}